target datalayout = "e-m:e-p270:32:32-p271:32:32-p272:64:64-i64:64-i128:128-f80:128-n8:16:32:64-S128"
target triple = "x86_64-pc-linux-gnu"

%struct.H5C_class_t = type { i32, ptr, i32, i32, ptr, ptr, ptr, ptr, ptr, ptr, ptr, ptr, ptr, ptr }
%struct.H5G_node_t = type { %struct.H5C_cache_entry_t, i64, i32, ptr }
%struct.H5C_cache_entry_t = type { ptr, i64, i64, ptr, i8, ptr, i8, i8, i8, i8, i32, i8, i8, i8, i8, i8, i32, ptr, i32, i32, i32, i32, i32, i8, i8, ptr, ptr, ptr, ptr, ptr, ptr, i8, i32, i8, i64, ptr, i64, i64, i32, i8, i32, i32, i8, ptr, ptr, ptr }

@H5G_init_g = external global i8, align 1
@H5_libterm_g = external global i8, align 1
@H5AC_SNODE = external constant [1 x %struct.H5C_class_t], align 16
@.str.2 = private unnamed_addr constant [101 x i8] c"generated/home/dtcxzyw/WorkSpace/Projects/compilers/llvm-opt-benchmark/bench/hdf5/hdf5/src/H5Gnode.c\00", align 1
@H5E_SYM_g = external global i64, align 8
@H5E_CANTPROTECT_g = external global i64, align 8
@.str.3 = private unnamed_addr constant [33 x i8] c"unable to load symbol table node\00", align 1
@H5E_CANTUNPROTECT_g = external global i64, align 8
@.str.7 = private unnamed_addr constant [32 x i8] c"unable to release object header\00", align 1
@__func__.H5G__node_sumup = private unnamed_addr constant [16 x i8] c"H5G__node_sumup\00", align 1

; Function Attrs: nounwind uwtable
define i32 @H5G__node_sumup(ptr noundef %0, ptr noundef %1, i64 noundef %2, ptr noundef %3, ptr noundef %4) #0 {
  %6 = alloca ptr, align 8
  %7 = alloca ptr, align 8
  %8 = alloca i64, align 8
  %9 = alloca ptr, align 8
  %10 = alloca ptr, align 8
  %11 = alloca ptr, align 8
  %12 = alloca ptr, align 8
  %13 = alloca i32, align 4
  %14 = alloca i8, align 1
  store ptr %0, ptr %6, align 8, !tbaa !3
  store ptr %1, ptr %7, align 8, !tbaa !8
  store i64 %2, ptr %8, align 8, !tbaa !21
  store ptr %3, ptr %9, align 8, !tbaa !8
  store ptr %4, ptr %10, align 8, !tbaa !8
  call void @llvm.lifetime.start.p0(i64 8, ptr %11) #8
  %15 = load ptr, ptr %10, align 8, !tbaa !8
  store ptr %15, ptr %11, align 8, !tbaa !15
  call void @llvm.lifetime.start.p0(i64 8, ptr %12) #8
  store ptr null, ptr %12, align 8, !tbaa !19
  call void @llvm.lifetime.start.p0(i64 4, ptr %13) #8
  store i32 0, ptr %13, align 4, !tbaa !13
  call void @llvm.lifetime.start.p0(i64 1, ptr %14) #8
  store i8 0, ptr %14, align 1, !tbaa !9
  %16 = load i8, ptr @H5G_init_g, align 1, !tbaa !9, !range !11, !noundef !12
  %17 = trunc i8 %16 to i1
  br i1 %17, label %22, label %18

18:                                               ; preds = %5
  %19 = load i8, ptr @H5_libterm_g, align 1, !tbaa !9, !range !11, !noundef !12
  %20 = trunc i8 %19 to i1
  %21 = xor i1 %20, true
  br label %22

22:                                               ; preds = %18, %5
  %23 = phi i1 [ true, %5 ], [ %21, %18 ]
  %24 = xor i1 %23, true
  %25 = xor i1 %24, true
  %26 = zext i1 %25 to i32
  %27 = sext i32 %26 to i64
  %28 = call i64 @llvm.expect.i64(i64 %27, i64 1)
  %29 = icmp ne i64 %28, 0
  br i1 %29, label %30, label %89

30:                                               ; preds = %22
  %31 = load ptr, ptr %6, align 8, !tbaa !3
  %32 = load i64, ptr %8, align 8, !tbaa !21
  %33 = load ptr, ptr %6, align 8, !tbaa !3
  %34 = call ptr @H5AC_protect(ptr noundef %31, ptr noundef @H5AC_SNODE, i64 noundef %32, ptr noundef %33, i32 noundef 128)
  store ptr %34, ptr %12, align 8, !tbaa !19
  %35 = icmp eq ptr null, %34
  br i1 %35, label %36, label %55

36:                                               ; preds = %30
  br label %37

37:                                               ; preds = %36
  br label %38

38:                                               ; preds = %37
  br label %39

39:                                               ; preds = %38
  %40 = load i64, ptr @H5E_SYM_g, align 8, !tbaa !21
  %41 = load i64, ptr @H5E_CANTPROTECT_g, align 8, !tbaa !21
  %42 = call i32 (ptr, ptr, i32, i64, i64, ptr, ...) @H5E_printf_stack(ptr noundef @.str.2, ptr noundef @__func__.H5G__node_sumup, i32 noundef 989, i64 noundef %40, i64 noundef %41, ptr noundef @.str.3)
  br label %43

43:                                               ; preds = %39
  br label %44

44:                                               ; preds = %43
  store i8 1, ptr %14, align 1, !tbaa !9
  %45 = load i8, ptr %14, align 1, !tbaa !9, !range !11, !noundef !12
  %46 = trunc i8 %45 to i1
  %47 = zext i1 %46 to i8
  store i8 %47, ptr %14, align 1, !tbaa !9
  br label %48

48:                                               ; preds = %44
  br label %49

49:                                               ; preds = %48
  br label %50

50:                                               ; preds = %49
  store i32 -1, ptr %13, align 4, !tbaa !13
  br label %63

51:                                               ; No predecessors!
  br label %52

52:                                               ; preds = %51
  br label %53

53:                                               ; preds = %52
  br label %54

54:                                               ; preds = %53
  br label %55

55:                                               ; preds = %54, %30
  %56 = load ptr, ptr %12, align 8, !tbaa !19
  %57 = getelementptr inbounds nuw %struct.H5G_node_t, ptr %56, i32 0, i32 2
  %58 = load i32, ptr %57, align 8, !tbaa !48
  %59 = zext i32 %58 to i64
  %60 = load ptr, ptr %11, align 8, !tbaa !15
  %61 = load i64, ptr %60, align 8, !tbaa !21
  %62 = add i64 %61, %59
  store i64 %62, ptr %60, align 8, !tbaa !21
  br label %63

63:                                               ; preds = %55, %50
  %64 = load ptr, ptr %12, align 8, !tbaa !19
  %65 = icmp ne ptr %64, null
  br i1 %65, label %66, label %88

66:                                               ; preds = %63
  %67 = load ptr, ptr %6, align 8, !tbaa !3
  %68 = load i64, ptr %8, align 8, !tbaa !21
  %69 = load ptr, ptr %12, align 8, !tbaa !19
  %70 = call i32 @H5AC_unprotect(ptr noundef %67, ptr noundef @H5AC_SNODE, i64 noundef %68, ptr noundef %69, i32 noundef 0)
  %71 = icmp slt i32 %70, 0
  br i1 %71, label %72, label %88

72:                                               ; preds = %66
  br label %73

73:                                               ; preds = %72
  br label %74

74:                                               ; preds = %73
  br label %75

75:                                               ; preds = %74
  %76 = load i64, ptr @H5E_SYM_g, align 8, !tbaa !21
  %77 = load i64, ptr @H5E_CANTUNPROTECT_g, align 8, !tbaa !21
  %78 = call i32 (ptr, ptr, i32, i64, i64, ptr, ...) @H5E_printf_stack(ptr noundef @.str.2, ptr noundef @__func__.H5G__node_sumup, i32 noundef 995, i64 noundef %76, i64 noundef %77, ptr noundef @.str.7)
  br label %79

79:                                               ; preds = %75
  br label %80

80:                                               ; preds = %79
  store i8 1, ptr %14, align 1, !tbaa !9
  %81 = load i8, ptr %14, align 1, !tbaa !9, !range !11, !noundef !12
  %82 = trunc i8 %81 to i1
  %83 = zext i1 %82 to i8
  store i8 %83, ptr %14, align 1, !tbaa !9
  br label %84

84:                                               ; preds = %80
  br label %85

85:                                               ; preds = %84
  store i32 -1, ptr %13, align 4, !tbaa !13
  br label %86

86:                                               ; preds = %85
  br label %87

87:                                               ; preds = %86
  br label %88

88:                                               ; preds = %87, %66, %63
  br label %89

89:                                               ; preds = %88, %22
  %90 = load i32, ptr %13, align 4, !tbaa !13
  call void @llvm.lifetime.end.p0(i64 1, ptr %14) #8
  call void @llvm.lifetime.end.p0(i64 4, ptr %13) #8
  call void @llvm.lifetime.end.p0(i64 8, ptr %12) #8
  call void @llvm.lifetime.end.p0(i64 8, ptr %11) #8
  ret i32 %90
}