; Function Attrs: nounwind uwtable
define range(i32 -1, 1) i32 @H5G__node_sumup(ptr noundef %0, ptr noundef readnone captures(none) %1, i64 noundef %2, ptr noundef readnone captures(none) %3, ptr noundef captures(none) %4) local_unnamed_addr #0 {
  %6 = load i8, ptr @H5G_init_g, align 1, !tbaa !3, !range !7, !noundef !8
  %7 = trunc nuw i8 %6 to i1
  %8 = load i8, ptr @H5_libterm_g, align 1, !range !7
  %9 = trunc nuw i8 %8 to i1
  %10 = xor i1 %9, true
  %11 = select i1 %7, i1 true, i1 %10
  br i1 %11, label %12, label %30, !prof !9

12:                                               ; preds = %5
  %13 = tail call ptr @H5AC_protect(ptr noundef %0, ptr noundef nonnull @H5AC_SNODE, i64 noundef %2, ptr noundef %0, i32 noundef 128) #9
  %14 = icmp eq ptr %13, null
  br i1 %14, label %.thread, label %18

.thread:                                          ; preds = %12
  %15 = load i64, ptr @H5E_SYM_g, align 8, !tbaa !10
  %16 = load i64, ptr @H5E_CANTPROTECT_g, align 8, !tbaa !10
  %17 = tail call i32 (ptr, ptr, i32, i64, i64, ptr, ...) @H5E_printf_stack(ptr noundef nonnull @.str.2, ptr noundef nonnull @__func__.H5G__node_sumup, i32 noundef 989, i64 noundef %15, i64 noundef %16, ptr noundef nonnull @.str.3) #9
  br label %30

18:                                               ; preds = %12
  %19 = getelementptr inbounds nuw i8, ptr %13, i64 256
  %20 = load i32, ptr %19, align 8, !tbaa !33
  %21 = zext i32 %20 to i64
  %22 = load i64, ptr %4, align 8, !tbaa !10
  %23 = add i64 %22, %21
  store i64 %23, ptr %4, align 8, !tbaa !10
  %24 = tail call i32 @H5AC_unprotect(ptr noundef %0, ptr noundef nonnull @H5AC_SNODE, i64 noundef %2, ptr noundef nonnull %13, i32 noundef 0) #9
  %25 = icmp slt i32 %24, 0
  br i1 %25, label %26, label %30

26:                                               ; preds = %18
  %27 = load i64, ptr @H5E_SYM_g, align 8, !tbaa !10
  %28 = load i64, ptr @H5E_CANTUNPROTECT_g, align 8, !tbaa !10
  %29 = tail call i32 (ptr, ptr, i32, i64, i64, ptr, ...) @H5E_printf_stack(ptr noundef nonnull @.str.2, ptr noundef nonnull @__func__.H5G__node_sumup, i32 noundef 995, i64 noundef %27, i64 noundef %28, ptr noundef nonnull @.str.7) #9
  br label %30

30:                                               ; preds = %.thread, %18, %26, %5
  %.0 = phi i32 [ -1, %26 ], [ 0, %18 ], [ 0, %5 ], [ -1, %.thread ]
  ret i32 %.0
}